target datalayout = "e-m:e-p270:32:32-p271:32:32-p272:64:64-i64:64-i128:128-f80:128-n8:16:32:64-S128"
target triple = "x86_64-pc-linux-gnu"

%"struct.std::_Rb_tree_key_compare" = type { %"struct.std::less" }
%"struct.std::less" = type { i8 }
%"struct.std::_Rb_tree_header" = type { %"struct.std::_Rb_tree_node_base", i64 }
%"struct.std::_Rb_tree_node_base" = type { i32, ptr, ptr, ptr }
%"struct.casadi::CsparseMemory" = type { %"struct.casadi::LinsolMemory.base", %struct.cs_sparse, ptr, ptr, %"class.std::vector.19", %"class.std::vector.24", %"class.std::vector.24" }
%"struct.casadi::LinsolMemory.base" = type <{ %"struct.casadi::ProtoFunctionMemory", i8, i8 }>
%"struct.casadi::ProtoFunctionMemory" = type { %"class.std::map.14", ptr }
%"class.std::map.14" = type { %"class.std::_Rb_tree.15" }
%"class.std::_Rb_tree.15" = type { %"struct.std::_Rb_tree<std::__cxx11::basic_string<char>, std::pair<const std::__cxx11::basic_string<char>, casadi::FStats>, std::_Select1st<std::pair<const std::__cxx11::basic_string<char>, casadi::FStats>>, std::less<std::__cxx11::basic_string<char>>>::_Rb_tree_impl" }
%"struct.std::_Rb_tree<std::__cxx11::basic_string<char>, std::pair<const std::__cxx11::basic_string<char>, casadi::FStats>, std::_Select1st<std::pair<const std::__cxx11::basic_string<char>, casadi::FStats>>, std::less<std::__cxx11::basic_string<char>>>::_Rb_tree_impl" = type { %"struct.std::_Rb_tree_key_compare", %"struct.std::_Rb_tree_header" }
%struct.cs_sparse = type { i32, i32, i32, ptr, ptr, ptr, i32 }
%"class.std::vector.19" = type { %"struct.std::_Vector_base.20" }
%"struct.std::_Vector_base.20" = type { %"struct.std::_Vector_base<double, std::allocator<double>>::_Vector_impl" }
%"struct.std::_Vector_base<double, std::allocator<double>>::_Vector_impl" = type { %"struct.std::_Vector_base<double, std::allocator<double>>::_Vector_impl_data" }
%"struct.std::_Vector_base<double, std::allocator<double>>::_Vector_impl_data" = type { ptr, ptr, ptr }
%"class.std::vector.24" = type { %"struct.std::_Vector_base.25" }
%"struct.std::_Vector_base.25" = type { %"struct.std::_Vector_base<int, std::allocator<int>>::_Vector_impl" }
%"struct.std::_Vector_base<int, std::allocator<int>>::_Vector_impl" = type { %"struct.std::_Vector_base<int, std::allocator<int>>::_Vector_impl_data" }
%"struct.std::_Vector_base<int, std::allocator<int>>::_Vector_impl_data" = type { ptr, ptr, ptr }

; Function Attrs: mustprogress uwtable
define noundef i32 @_ZNK6casadi16CsparseInterface5sfactEPvPKd(ptr noundef nonnull align 8 dereferenceable(184) %0, ptr noundef %1, ptr noundef %2) unnamed_addr #5 align 2 {
  %4 = alloca ptr, align 8
  %5 = alloca ptr, align 8
  %6 = alloca ptr, align 8
  %7 = alloca ptr, align 8
  %8 = alloca i64, align 8
  store ptr %0, ptr %4, align 8
  store ptr %1, ptr %5, align 8
  store ptr %2, ptr %6, align 8
  %9 = load ptr, ptr %5, align 8
  store ptr %9, ptr %7, align 8
  %10 = load ptr, ptr %6, align 8
  %11 = load ptr, ptr %7, align 8
  %12 = getelementptr inbounds %"struct.casadi::CsparseMemory", ptr %11, i32 0, i32 1
  %13 = getelementptr inbounds %struct.cs_sparse, ptr %12, i32 0, i32 5
  store ptr %10, ptr %13, align 8
  store i64 0, ptr %8, align 8
  %14 = load ptr, ptr %7, align 8
  %15 = getelementptr inbounds %"struct.casadi::CsparseMemory", ptr %14, i32 0, i32 2
  %16 = load ptr, ptr %15, align 8
  %17 = icmp ne ptr %16, null
  br i1 %17, label %18, label %23

18:                                               ; preds = %3
  %19 = load ptr, ptr %7, align 8
  %20 = getelementptr inbounds %"struct.casadi::CsparseMemory", ptr %19, i32 0, i32 2
  %21 = load ptr, ptr %20, align 8
  %22 = call ptr @cs_sfree(ptr noundef %21)
  br label %23

23:                                               ; preds = %18, %3
  %24 = load i64, ptr %8, align 8
  %25 = trunc i64 %24 to i32
  %26 = load ptr, ptr %7, align 8
  %27 = getelementptr inbounds %"struct.casadi::CsparseMemory", ptr %26, i32 0, i32 1
  %28 = call ptr @cs_sqr(i32 noundef %25, ptr noundef %27, i32 noundef 0)
  %29 = load ptr, ptr %7, align 8
  %30 = getelementptr inbounds %"struct.casadi::CsparseMemory", ptr %29, i32 0, i32 2
  store ptr %28, ptr %30, align 8
  ret i32 0
}