; Function Attrs: mustprogress uwtable
define noundef i32 @_ZNK6casadi16CsparseInterface5sfactEPvPKd(ptr nocapture nonnull readnone align 8 %0, ptr noundef %1, ptr noundef %2) unnamed_addr #4 align 2 {
  %4 = getelementptr inbounds i8, ptr %1, i64 96
  store ptr %2, ptr %4, align 8
  %5 = getelementptr inbounds i8, ptr %1, i64 112
  %6 = load ptr, ptr %5, align 8
  %.not = icmp eq ptr %6, null
  br i1 %.not, label %9, label %7

7:                                                ; preds = %3
  %8 = tail call ptr @cs_sfree(ptr noundef nonnull %6)
  br label %9

9:                                                ; preds = %7, %3
  %10 = getelementptr inbounds i8, ptr %1, i64 64
  %11 = tail call ptr @cs_sqr(i32 noundef 0, ptr noundef nonnull %10, i32 noundef 0)
  store ptr %11, ptr %5, align 8
  ret i32 0
}